target datalayout = "e-m:e-p270:32:32-p271:32:32-p272:64:64-i64:64-i128:128-f80:128-n8:16:32:64-S128"
target triple = "x86_64-pc-linux-gnu"

%struct.ec_group_st = type { ptr, ptr, ptr, ptr, i32, i32, i32, i32, ptr, i64, ptr, [6 x i32], ptr, ptr, i32, ptr, ptr, ptr, ptr, i32, %union.anon, ptr, ptr }
%union.anon = type { ptr }
%struct.ec_method_st = type { i32, i32, ptr, ptr, ptr, ptr, ptr, ptr, ptr, ptr, ptr, ptr, ptr, ptr, ptr, ptr, ptr, ptr, ptr, ptr, ptr, ptr, ptr, ptr, ptr, ptr, ptr, ptr, ptr, ptr, ptr, ptr, ptr, ptr, ptr, ptr, ptr, ptr, ptr, ptr, ptr, ptr, ptr, ptr, ptr, ptr, ptr, ptr, ptr, ptr, ptr, ptr, ptr, ptr, ptr, ptr, ptr }

@.str = private unnamed_addr constant [31 x i8] c"../openssl/crypto/ec/ec2_oct.c\00", align 1
@__func__.ossl_ec_GF2m_simple_oct2point = private unnamed_addr constant [30 x i8] c"ossl_ec_GF2m_simple_oct2point\00", align 1

; Function Attrs: nounwind uwtable
define i32 @ossl_ec_GF2m_simple_oct2point(ptr noundef %0, ptr noundef %1, ptr noundef %2, i64 noundef %3, ptr noundef %4) #0 {
  %6 = alloca i32, align 4
  %7 = alloca ptr, align 8
  %8 = alloca ptr, align 8
  %9 = alloca ptr, align 8
  %10 = alloca i64, align 8
  %11 = alloca ptr, align 8
  %12 = alloca i32, align 4
  %13 = alloca i32, align 4
  %14 = alloca i32, align 4
  %15 = alloca ptr, align 8
  %16 = alloca ptr, align 8
  %17 = alloca ptr, align 8
  %18 = alloca i64, align 8
  %19 = alloca i64, align 8
  %20 = alloca i32, align 4
  %21 = alloca ptr, align 8
  %22 = alloca i32, align 4
  store ptr %0, ptr %7, align 8, !tbaa !3
  store ptr %1, ptr %8, align 8, !tbaa !8
  store ptr %2, ptr %9, align 8, !tbaa !30
  store i64 %3, ptr %10, align 8, !tbaa !28
  store ptr %4, ptr %11, align 8, !tbaa !14
  call void @llvm.lifetime.start.p0(i64 4, ptr %12) #4
  call void @llvm.lifetime.start.p0(i64 4, ptr %13) #4
  call void @llvm.lifetime.start.p0(i64 4, ptr %14) #4
  call void @llvm.lifetime.start.p0(i64 8, ptr %15) #4
  call void @llvm.lifetime.start.p0(i64 8, ptr %16) #4
  call void @llvm.lifetime.start.p0(i64 8, ptr %17) #4
  call void @llvm.lifetime.start.p0(i64 8, ptr %18) #4
  call void @llvm.lifetime.start.p0(i64 8, ptr %19) #4
  call void @llvm.lifetime.start.p0(i64 4, ptr %20) #4
  store i32 0, ptr %20, align 4, !tbaa !12
  call void @llvm.lifetime.start.p0(i64 8, ptr %21) #4
  store ptr null, ptr %21, align 8, !tbaa !14
  %23 = load i64, ptr %10, align 8, !tbaa !28
  %24 = icmp eq i64 %23, 0
  br i1 %24, label %25, label %26

25:                                               ; preds = %5
  call void @ERR_new()
  call void @ERR_set_debug(ptr noundef @.str, i32 noundef 270, ptr noundef @__func__.ossl_ec_GF2m_simple_oct2point)
  call void (i32, i32, ptr, ...) @ERR_set_error(i32 noundef 16, i32 noundef 100, ptr noundef null)
  store i32 0, ptr %6, align 4
  store i32 1, ptr %22, align 4
  br label %206

26:                                               ; preds = %5
  %27 = load ptr, ptr %9, align 8, !tbaa !30
  %28 = getelementptr inbounds i8, ptr %27, i64 0
  %29 = load i8, ptr %28, align 1, !tbaa !31
  %30 = zext i8 %29 to i32
  %31 = and i32 %30, 1
  store i32 %31, ptr %13, align 4, !tbaa !12
  %32 = load ptr, ptr %9, align 8, !tbaa !30
  %33 = getelementptr inbounds i8, ptr %32, i64 0
  %34 = load i8, ptr %33, align 1, !tbaa !31
  %35 = zext i8 %34 to i32
  %36 = and i32 %35, -2
  store i32 %36, ptr %12, align 4, !tbaa !12
  %37 = load i32, ptr %12, align 4, !tbaa !12
  %38 = icmp ne i32 %37, 0
  br i1 %38, label %39, label %49

39:                                               ; preds = %26
  %40 = load i32, ptr %12, align 4, !tbaa !12
  %41 = icmp ne i32 %40, 2
  br i1 %41, label %42, label %49

42:                                               ; preds = %39
  %43 = load i32, ptr %12, align 4, !tbaa !12
  %44 = icmp ne i32 %43, 4
  br i1 %44, label %45, label %49

45:                                               ; preds = %42
  %46 = load i32, ptr %12, align 4, !tbaa !12
  %47 = icmp ne i32 %46, 6
  br i1 %47, label %48, label %49

48:                                               ; preds = %45
  call void @ERR_new()
  call void @ERR_set_debug(ptr noundef @.str, i32 noundef 291, ptr noundef @__func__.ossl_ec_GF2m_simple_oct2point)
  call void (i32, i32, ptr, ...) @ERR_set_error(i32 noundef 16, i32 noundef 102, ptr noundef null)
  store i32 0, ptr %6, align 4
  store i32 1, ptr %22, align 4
  br label %206

49:                                               ; preds = %45, %42, %39, %26
  %50 = load i32, ptr %12, align 4, !tbaa !12
  %51 = icmp eq i32 %50, 0
  br i1 %51, label %55, label %52

52:                                               ; preds = %49
  %53 = load i32, ptr %12, align 4, !tbaa !12
  %54 = icmp eq i32 %53, 4
  br i1 %54, label %55, label %59

55:                                               ; preds = %52, %49
  %56 = load i32, ptr %13, align 4, !tbaa !12
  %57 = icmp ne i32 %56, 0
  br i1 %57, label %58, label %59

58:                                               ; preds = %55
  call void @ERR_new()
  call void @ERR_set_debug(ptr noundef @.str, i32 noundef 295, ptr noundef @__func__.ossl_ec_GF2m_simple_oct2point)
  call void (i32, i32, ptr, ...) @ERR_set_error(i32 noundef 16, i32 noundef 102, ptr noundef null)
  store i32 0, ptr %6, align 4
  store i32 1, ptr %22, align 4
  br label %206

59:                                               ; preds = %55, %52
  %60 = load i32, ptr %12, align 4, !tbaa !12
  %61 = icmp eq i32 %60, 0
  br i1 %61, label %62, label %70

62:                                               ; preds = %59
  %63 = load i64, ptr %10, align 8, !tbaa !28
  %64 = icmp ne i64 %63, 1
  br i1 %64, label %65, label %66

65:                                               ; preds = %62
  call void @ERR_new()
  call void @ERR_set_debug(ptr noundef @.str, i32 noundef 302, ptr noundef @__func__.ossl_ec_GF2m_simple_oct2point)
  call void (i32, i32, ptr, ...) @ERR_set_error(i32 noundef 16, i32 noundef 102, ptr noundef null)
  store i32 0, ptr %6, align 4
  store i32 1, ptr %22, align 4
  br label %206

66:                                               ; preds = %62
  %67 = load ptr, ptr %7, align 8, !tbaa !3
  %68 = load ptr, ptr %8, align 8, !tbaa !8
  %69 = call i32 @EC_POINT_set_to_infinity(ptr noundef %67, ptr noundef %68)
  store i32 %69, ptr %6, align 4
  store i32 1, ptr %22, align 4
  br label %206

70:                                               ; preds = %59
  %71 = load ptr, ptr %7, align 8, !tbaa !3
  %72 = call i32 @EC_GROUP_get_degree(ptr noundef %71)
  store i32 %72, ptr %14, align 4, !tbaa !12
  %73 = load i32, ptr %14, align 4, !tbaa !12
  %74 = add nsw i32 %73, 7
  %75 = sdiv i32 %74, 8
  %76 = sext i32 %75 to i64
  store i64 %76, ptr %18, align 8, !tbaa !28
  %77 = load i32, ptr %12, align 4, !tbaa !12
  %78 = icmp eq i32 %77, 2
  br i1 %78, label %79, label %82

79:                                               ; preds = %70
  %80 = load i64, ptr %18, align 8, !tbaa !28
  %81 = add i64 1, %80
  br label %86

82:                                               ; preds = %70
  %83 = load i64, ptr %18, align 8, !tbaa !28
  %84 = mul i64 2, %83
  %85 = add i64 1, %84
  br label %86

86:                                               ; preds = %82, %79
  %87 = phi i64 [ %81, %79 ], [ %85, %82 ]
  store i64 %87, ptr %19, align 8, !tbaa !28
  %88 = load i64, ptr %10, align 8, !tbaa !28
  %89 = load i64, ptr %19, align 8, !tbaa !28
  %90 = icmp ne i64 %88, %89
  br i1 %90, label %91, label %92

91:                                               ; preds = %86
  call void @ERR_new()
  call void @ERR_set_debug(ptr noundef @.str, i32 noundef 316, ptr noundef @__func__.ossl_ec_GF2m_simple_oct2point)
  call void (i32, i32, ptr, ...) @ERR_set_error(i32 noundef 16, i32 noundef 102, ptr noundef null)
  store i32 0, ptr %6, align 4
  store i32 1, ptr %22, align 4
  br label %206

92:                                               ; preds = %86
  %93 = load ptr, ptr %11, align 8, !tbaa !14
  %94 = icmp eq ptr %93, null
  br i1 %94, label %95, label %101

95:                                               ; preds = %92
  %96 = call ptr @BN_CTX_new()
  store ptr %96, ptr %21, align 8, !tbaa !14
  store ptr %96, ptr %11, align 8, !tbaa !14
  %97 = load ptr, ptr %11, align 8, !tbaa !14
  %98 = icmp eq ptr %97, null
  br i1 %98, label %99, label %100

99:                                               ; preds = %95
  store i32 0, ptr %6, align 4
  store i32 1, ptr %22, align 4
  br label %206

100:                                              ; preds = %95
  br label %101

101:                                              ; preds = %100, %92
  %102 = load ptr, ptr %11, align 8, !tbaa !14
  call void @BN_CTX_start(ptr noundef %102)
  %103 = load ptr, ptr %11, align 8, !tbaa !14
  %104 = call ptr @BN_CTX_get(ptr noundef %103)
  store ptr %104, ptr %15, align 8, !tbaa !10
  %105 = load ptr, ptr %11, align 8, !tbaa !14
  %106 = call ptr @BN_CTX_get(ptr noundef %105)
  store ptr %106, ptr %16, align 8, !tbaa !10
  %107 = load ptr, ptr %11, align 8, !tbaa !14
  %108 = call ptr @BN_CTX_get(ptr noundef %107)
  store ptr %108, ptr %17, align 8, !tbaa !10
  %109 = load ptr, ptr %17, align 8, !tbaa !10
  %110 = icmp eq ptr %109, null
  br i1 %110, label %111, label %112

111:                                              ; preds = %101
  br label %202

112:                                              ; preds = %101
  %113 = load ptr, ptr %9, align 8, !tbaa !30
  %114 = getelementptr inbounds i8, ptr %113, i64 1
  %115 = load i64, ptr %18, align 8, !tbaa !28
  %116 = trunc i64 %115 to i32
  %117 = load ptr, ptr %15, align 8, !tbaa !10
  %118 = call ptr @BN_bin2bn(ptr noundef %114, i32 noundef %116, ptr noundef %117)
  %119 = icmp ne ptr %118, null
  br i1 %119, label %121, label %120

120:                                              ; preds = %112
  br label %202

121:                                              ; preds = %112
  %122 = load ptr, ptr %15, align 8, !tbaa !10
  %123 = call i32 @BN_num_bits(ptr noundef %122)
  %124 = load i32, ptr %14, align 4, !tbaa !12
  %125 = icmp sgt i32 %123, %124
  br i1 %125, label %126, label %127

126:                                              ; preds = %121
  call void @ERR_new()
  call void @ERR_set_debug(ptr noundef @.str, i32 noundef 338, ptr noundef @__func__.ossl_ec_GF2m_simple_oct2point)
  call void (i32, i32, ptr, ...) @ERR_set_error(i32 noundef 16, i32 noundef 102, ptr noundef null)
  br label %202

127:                                              ; preds = %121
  %128 = load i32, ptr %12, align 4, !tbaa !12
  %129 = icmp eq i32 %128, 2
  br i1 %129, label %130, label %140

130:                                              ; preds = %127
  %131 = load ptr, ptr %7, align 8, !tbaa !3
  %132 = load ptr, ptr %8, align 8, !tbaa !8
  %133 = load ptr, ptr %15, align 8, !tbaa !10
  %134 = load i32, ptr %13, align 4, !tbaa !12
  %135 = load ptr, ptr %11, align 8, !tbaa !14
  %136 = call i32 @EC_POINT_set_compressed_coordinates(ptr noundef %131, ptr noundef %132, ptr noundef %133, i32 noundef %134, ptr noundef %135)
  %137 = icmp ne i32 %136, 0
  br i1 %137, label %139, label %138

138:                                              ; preds = %130
  br label %202

139:                                              ; preds = %130
  br label %201

140:                                              ; preds = %127
  %141 = load ptr, ptr %9, align 8, !tbaa !30
  %142 = getelementptr inbounds i8, ptr %141, i64 1
  %143 = load i64, ptr %18, align 8, !tbaa !28
  %144 = getelementptr inbounds nuw i8, ptr %142, i64 %143
  %145 = load i64, ptr %18, align 8, !tbaa !28
  %146 = trunc i64 %145 to i32
  %147 = load ptr, ptr %16, align 8, !tbaa !10
  %148 = call ptr @BN_bin2bn(ptr noundef %144, i32 noundef %146, ptr noundef %147)
  %149 = icmp ne ptr %148, null
  br i1 %149, label %151, label %150

150:                                              ; preds = %140
  br label %202

151:                                              ; preds = %140
  %152 = load ptr, ptr %16, align 8, !tbaa !10
  %153 = call i32 @BN_num_bits(ptr noundef %152)
  %154 = load i32, ptr %14, align 4, !tbaa !12
  %155 = icmp sgt i32 %153, %154
  br i1 %155, label %156, label %157

156:                                              ; preds = %151
  call void @ERR_new()
  call void @ERR_set_debug(ptr noundef @.str, i32 noundef 349, ptr noundef @__func__.ossl_ec_GF2m_simple_oct2point)
  call void (i32, i32, ptr, ...) @ERR_set_error(i32 noundef 16, i32 noundef 102, ptr noundef null)
  br label %202

157:                                              ; preds = %151
  %158 = load i32, ptr %12, align 4, !tbaa !12
  %159 = icmp eq i32 %158, 6
  br i1 %159, label %160, label %191

160:                                              ; preds = %157
  %161 = load ptr, ptr %15, align 8, !tbaa !10
  %162 = call i32 @BN_is_zero(ptr noundef %161)
  %163 = icmp ne i32 %162, 0
  br i1 %163, label %164, label %169

164:                                              ; preds = %160
  %165 = load i32, ptr %13, align 4, !tbaa !12
  %166 = icmp ne i32 %165, 0
  br i1 %166, label %167, label %168

167:                                              ; preds = %164
  call void @ERR_new()
  call void @ERR_set_debug(ptr noundef @.str, i32 noundef 360, ptr noundef @__func__.ossl_ec_GF2m_simple_oct2point)
  call void (i32, i32, ptr, ...) @ERR_set_error(i32 noundef 16, i32 noundef 102, ptr noundef null)
  br label %202

168:                                              ; preds = %164
  br label %190

169:                                              ; preds = %160
  %170 = load ptr, ptr %7, align 8, !tbaa !3
  %171 = getelementptr inbounds nuw %struct.ec_group_st, ptr %170, i32 0, i32 0
  %172 = load ptr, ptr %171, align 8, !tbaa !23
  %173 = getelementptr inbounds nuw %struct.ec_method_st, ptr %172, i32 0, i32 34
  %174 = load ptr, ptr %173, align 8, !tbaa !26
  %175 = load ptr, ptr %7, align 8, !tbaa !3
  %176 = load ptr, ptr %17, align 8, !tbaa !10
  %177 = load ptr, ptr %16, align 8, !tbaa !10
  %178 = load ptr, ptr %15, align 8, !tbaa !10
  %179 = load ptr, ptr %11, align 8, !tbaa !14
  %180 = call i32 %174(ptr noundef %175, ptr noundef %176, ptr noundef %177, ptr noundef %178, ptr noundef %179)
  %181 = icmp ne i32 %180, 0
  br i1 %181, label %183, label %182

182:                                              ; preds = %169
  br label %202

183:                                              ; preds = %169
  %184 = load i32, ptr %13, align 4, !tbaa !12
  %185 = load ptr, ptr %17, align 8, !tbaa !10
  %186 = call i32 @BN_is_odd(ptr noundef %185)
  %187 = icmp ne i32 %184, %186
  br i1 %187, label %188, label %189

188:                                              ; preds = %183
  call void @ERR_new()
  call void @ERR_set_debug(ptr noundef @.str, i32 noundef 367, ptr noundef @__func__.ossl_ec_GF2m_simple_oct2point)
  call void (i32, i32, ptr, ...) @ERR_set_error(i32 noundef 16, i32 noundef 102, ptr noundef null)
  br label %202

189:                                              ; preds = %183
  br label %190

190:                                              ; preds = %189, %168
  br label %191

191:                                              ; preds = %190, %157
  %192 = load ptr, ptr %7, align 8, !tbaa !3
  %193 = load ptr, ptr %8, align 8, !tbaa !8
  %194 = load ptr, ptr %15, align 8, !tbaa !10
  %195 = load ptr, ptr %16, align 8, !tbaa !10
  %196 = load ptr, ptr %11, align 8, !tbaa !14
  %197 = call i32 @EC_POINT_set_affine_coordinates(ptr noundef %192, ptr noundef %193, ptr noundef %194, ptr noundef %195, ptr noundef %196)
  %198 = icmp ne i32 %197, 0
  br i1 %198, label %200, label %199

199:                                              ; preds = %191
  br label %202

200:                                              ; preds = %191
  br label %201

201:                                              ; preds = %200, %139
  store i32 1, ptr %20, align 4, !tbaa !12
  br label %202

202:                                              ; preds = %201, %199, %188, %182, %167, %156, %150, %138, %126, %120, %111
  %203 = load ptr, ptr %11, align 8, !tbaa !14
  call void @BN_CTX_end(ptr noundef %203)
  %204 = load ptr, ptr %21, align 8, !tbaa !14
  call void @BN_CTX_free(ptr noundef %204)
  %205 = load i32, ptr %20, align 4, !tbaa !12
  store i32 %205, ptr %6, align 4
  store i32 1, ptr %22, align 4
  br label %206

206:                                              ; preds = %202, %99, %91, %66, %65, %58, %48, %25
  call void @llvm.lifetime.end.p0(i64 8, ptr %21) #4
  call void @llvm.lifetime.end.p0(i64 4, ptr %20) #4
  call void @llvm.lifetime.end.p0(i64 8, ptr %19) #4
  call void @llvm.lifetime.end.p0(i64 8, ptr %18) #4
  call void @llvm.lifetime.end.p0(i64 8, ptr %17) #4
  call void @llvm.lifetime.end.p0(i64 8, ptr %16) #4
  call void @llvm.lifetime.end.p0(i64 8, ptr %15) #4
  call void @llvm.lifetime.end.p0(i64 4, ptr %14) #4
  call void @llvm.lifetime.end.p0(i64 4, ptr %13) #4
  call void @llvm.lifetime.end.p0(i64 4, ptr %12) #4
  %207 = load i32, ptr %6, align 4
  ret i32 %207
}