; Function Attrs: nounwind uwtable
define i32 @ossl_ec_GF2m_simple_oct2point(ptr noundef %0, ptr noundef %1, ptr noundef %2, i64 noundef %3, ptr noundef %4) local_unnamed_addr #0 {
  %6 = icmp eq i64 %3, 0
  br i1 %6, label %7, label %8

7:                                                ; preds = %5
  tail call void @ERR_new() #3
  tail call void @ERR_set_debug(ptr noundef nonnull @.str, i32 noundef 270, ptr noundef nonnull @__func__.ossl_ec_GF2m_simple_oct2point) #3
  tail call void (i32, i32, ptr, ...) @ERR_set_error(i32 noundef 16, i32 noundef 100, ptr noundef null) #3
  br label %82

8:                                                ; preds = %5
  %9 = load i8, ptr %2, align 1, !tbaa !22
  %10 = zext i8 %9 to i32
  %11 = and i32 %10, 1
  %12 = and i32 %10, 254
  %or.cond = icmp ugt i8 %9, 3
  %13 = and i32 %10, 252
  %14 = icmp ne i32 %13, 4
  %or.cond5 = and i1 %or.cond, %14
  br i1 %or.cond5, label %15, label %16

15:                                               ; preds = %8
  tail call void @ERR_new() #3
  tail call void @ERR_set_debug(ptr noundef nonnull @.str, i32 noundef 291, ptr noundef nonnull @__func__.ossl_ec_GF2m_simple_oct2point) #3
  tail call void (i32, i32, ptr, ...) @ERR_set_error(i32 noundef 16, i32 noundef 102, ptr noundef null) #3
  br label %82

16:                                               ; preds = %8
  %17 = icmp eq i32 %12, 0
  %18 = icmp eq i32 %12, 4
  %or.cond7 = or i1 %17, %18
  %19 = icmp ne i32 %11, 0
  %or.cond9 = and i1 %19, %or.cond7
  br i1 %or.cond9, label %20, label %21

20:                                               ; preds = %16
  tail call void @ERR_new() #3
  tail call void @ERR_set_debug(ptr noundef nonnull @.str, i32 noundef 295, ptr noundef nonnull @__func__.ossl_ec_GF2m_simple_oct2point) #3
  tail call void (i32, i32, ptr, ...) @ERR_set_error(i32 noundef 16, i32 noundef 102, ptr noundef null) #3
  br label %82

21:                                               ; preds = %16
  br i1 %17, label %22, label %26

22:                                               ; preds = %21
  %.not89 = icmp eq i64 %3, 1
  br i1 %.not89, label %24, label %23

23:                                               ; preds = %22
  tail call void @ERR_new() #3
  tail call void @ERR_set_debug(ptr noundef nonnull @.str, i32 noundef 302, ptr noundef nonnull @__func__.ossl_ec_GF2m_simple_oct2point) #3
  tail call void (i32, i32, ptr, ...) @ERR_set_error(i32 noundef 16, i32 noundef 102, ptr noundef null) #3
  br label %82

24:                                               ; preds = %22
  %25 = tail call i32 @EC_POINT_set_to_infinity(ptr noundef %0, ptr noundef %1) #3
  br label %82

26:                                               ; preds = %21
  %27 = tail call i32 @EC_GROUP_get_degree(ptr noundef %0) #3
  %28 = add nsw i32 %27, 7
  %29 = sdiv i32 %28, 8
  %30 = sext i32 %29 to i64
  %31 = icmp eq i32 %12, 2
  %32 = add nsw i64 %30, 1
  %33 = shl nsw i64 %30, 1
  %34 = or disjoint i64 %33, 1
  %35 = select i1 %31, i64 %32, i64 %34
  %.not = icmp eq i64 %3, %35
  br i1 %.not, label %37, label %36

36:                                               ; preds = %26
  tail call void @ERR_new() #3
  tail call void @ERR_set_debug(ptr noundef nonnull @.str, i32 noundef 316, ptr noundef nonnull @__func__.ossl_ec_GF2m_simple_oct2point) #3
  tail call void (i32, i32, ptr, ...) @ERR_set_error(i32 noundef 16, i32 noundef 102, ptr noundef null) #3
  br label %82

37:                                               ; preds = %26
  %38 = icmp eq ptr %4, null
  br i1 %38, label %39, label %42

39:                                               ; preds = %37
  %40 = tail call ptr @BN_CTX_new() #3
  %41 = icmp eq ptr %40, null
  br i1 %41, label %82, label %42

42:                                               ; preds = %39, %37
  %.075 = phi ptr [ %40, %39 ], [ %4, %37 ]
  %.0 = phi ptr [ %40, %39 ], [ null, %37 ]
  tail call void @BN_CTX_start(ptr noundef nonnull %.075) #3
  %43 = tail call ptr @BN_CTX_get(ptr noundef nonnull %.075) #3
  %44 = tail call ptr @BN_CTX_get(ptr noundef nonnull %.075) #3
  %45 = tail call ptr @BN_CTX_get(ptr noundef nonnull %.075) #3
  %46 = icmp eq ptr %45, null
  br i1 %46, label %81, label %47

47:                                               ; preds = %42
  %48 = getelementptr inbounds nuw i8, ptr %2, i64 1
  %49 = tail call ptr @BN_bin2bn(ptr noundef nonnull %48, i32 noundef %29, ptr noundef %43) #3
  %.not82 = icmp eq ptr %49, null
  br i1 %.not82, label %81, label %50

50:                                               ; preds = %47
  %51 = tail call i32 @BN_num_bits(ptr noundef %43) #3
  %52 = icmp sgt i32 %51, %27
  br i1 %52, label %53, label %54

53:                                               ; preds = %50
  tail call void @ERR_new() #3
  tail call void @ERR_set_debug(ptr noundef nonnull @.str, i32 noundef 338, ptr noundef nonnull @__func__.ossl_ec_GF2m_simple_oct2point) #3
  tail call void (i32, i32, ptr, ...) @ERR_set_error(i32 noundef 16, i32 noundef 102, ptr noundef null) #3
  br label %81

54:                                               ; preds = %50
  br i1 %31, label %55, label %57

55:                                               ; preds = %54
  %56 = tail call i32 @EC_POINT_set_compressed_coordinates(ptr noundef %0, ptr noundef %1, ptr noundef %43, i32 noundef %11, ptr noundef nonnull %.075) #3
  %.not88 = icmp eq i32 %56, 0
  br i1 %.not88, label %81, label %80

57:                                               ; preds = %54
  %58 = getelementptr inbounds nuw i8, ptr %48, i64 %30
  %59 = tail call ptr @BN_bin2bn(ptr noundef nonnull %58, i32 noundef %29, ptr noundef %44) #3
  %.not83 = icmp eq ptr %59, null
  br i1 %.not83, label %81, label %60

60:                                               ; preds = %57
  %61 = tail call i32 @BN_num_bits(ptr noundef %44) #3
  %62 = icmp sgt i32 %61, %27
  br i1 %62, label %63, label %64

63:                                               ; preds = %60
  tail call void @ERR_new() #3
  tail call void @ERR_set_debug(ptr noundef nonnull @.str, i32 noundef 349, ptr noundef nonnull @__func__.ossl_ec_GF2m_simple_oct2point) #3
  tail call void (i32, i32, ptr, ...) @ERR_set_error(i32 noundef 16, i32 noundef 102, ptr noundef null) #3
  br label %81

64:                                               ; preds = %60
  %65 = icmp eq i32 %12, 6
  br i1 %65, label %66, label %78

66:                                               ; preds = %64
  %67 = tail call i32 @BN_is_zero(ptr noundef %43) #3
  %.not84 = icmp eq i32 %67, 0
  br i1 %.not84, label %70, label %68

68:                                               ; preds = %66
  br i1 %19, label %69, label %78

69:                                               ; preds = %68
  tail call void @ERR_new() #3
  tail call void @ERR_set_debug(ptr noundef nonnull @.str, i32 noundef 360, ptr noundef nonnull @__func__.ossl_ec_GF2m_simple_oct2point) #3
  tail call void (i32, i32, ptr, ...) @ERR_set_error(i32 noundef 16, i32 noundef 102, ptr noundef null) #3
  br label %81

70:                                               ; preds = %66
  %71 = load ptr, ptr %0, align 8, !tbaa !16
  %72 = getelementptr inbounds nuw i8, ptr %71, i64 264
  %73 = load ptr, ptr %72, align 8, !tbaa !19
  %74 = tail call i32 %73(ptr noundef nonnull %0, ptr noundef nonnull %45, ptr noundef %44, ptr noundef %43, ptr noundef nonnull %.075) #3
  %.not85 = icmp eq i32 %74, 0
  br i1 %.not85, label %81, label %75

75:                                               ; preds = %70
  %76 = tail call i32 @BN_is_odd(ptr noundef nonnull %45) #3
  %.not86 = icmp eq i32 %11, %76
  br i1 %.not86, label %78, label %77

77:                                               ; preds = %75
  tail call void @ERR_new() #3
  tail call void @ERR_set_debug(ptr noundef nonnull @.str, i32 noundef 367, ptr noundef nonnull @__func__.ossl_ec_GF2m_simple_oct2point) #3
  tail call void (i32, i32, ptr, ...) @ERR_set_error(i32 noundef 16, i32 noundef 102, ptr noundef null) #3
  br label %81

78:                                               ; preds = %68, %75, %64
  %79 = tail call i32 @EC_POINT_set_affine_coordinates(ptr noundef %0, ptr noundef %1, ptr noundef %43, ptr noundef %44, ptr noundef nonnull %.075) #3
  %.not87 = icmp eq i32 %79, 0
  br i1 %.not87, label %81, label %80

80:                                               ; preds = %78, %55
  br label %81

81:                                               ; preds = %78, %70, %57, %55, %47, %42, %80, %77, %69, %63, %53
  %.073 = phi i32 [ 0, %42 ], [ 0, %53 ], [ 1, %80 ], [ 0, %55 ], [ 0, %63 ], [ 0, %69 ], [ 0, %78 ], [ 0, %77 ], [ 0, %70 ], [ 0, %57 ], [ 0, %47 ]
  tail call void @BN_CTX_end(ptr noundef nonnull %.075) #3
  tail call void @BN_CTX_free(ptr noundef %.0) #3
  br label %82

82:                                               ; preds = %39, %81, %36, %24, %23, %20, %15, %7
  %.074 = phi i32 [ 0, %7 ], [ 0, %15 ], [ 0, %20 ], [ 0, %23 ], [ %25, %24 ], [ 0, %36 ], [ %.073, %81 ], [ 0, %39 ]
  ret i32 %.074
}